target datalayout = "e-m:e-p270:32:32-p271:32:32-p272:64:64-i64:64-i128:128-f80:128-n8:16:32:64-S128"
target triple = "x86_64-unknown-linux-gnu"

; Function Attrs: mustprogress nounwind uwtable
define internal noundef zeroext i1 @_ZN8QuantLib12_GLOBAL__N_113isVeteransDayEiNS_5MonthEiNS_7WeekdayE(i32 noundef %d, i32 noundef %m, i32 noundef %y, i32 noundef %w) #1 {
entry:
  %retval = alloca i1, align 1
  %d.addr = alloca i32, align 4
  %m.addr = alloca i32, align 4
  %y.addr = alloca i32, align 4
  %w.addr = alloca i32, align 4
  store i32 %d, ptr %d.addr, align 4, !tbaa !14
  store i32 %m, ptr %m.addr, align 4, !tbaa !16
  store i32 %y, ptr %y.addr, align 4, !tbaa !14
  store i32 %w, ptr %w.addr, align 4, !tbaa !12
  %0 = load i32, ptr %y.addr, align 4, !tbaa !14
  %cmp = icmp sle i32 %0, 1970
  br i1 %cmp, label %if.then, label %lor.lhs.false

lor.lhs.false:                                    ; preds = %entry
  %1 = load i32, ptr %y.addr, align 4, !tbaa !14
  %cmp1 = icmp sge i32 %1, 1978
  br i1 %cmp1, label %if.then, label %if.else

if.then:                                          ; preds = %lor.lhs.false, %entry
  %2 = load i32, ptr %d.addr, align 4, !tbaa !14
  %cmp2 = icmp eq i32 %2, 11
  br i1 %cmp2, label %land.rhs, label %lor.lhs.false3

lor.lhs.false3:                                   ; preds = %if.then
  %3 = load i32, ptr %d.addr, align 4, !tbaa !14
  %cmp4 = icmp eq i32 %3, 12
  br i1 %cmp4, label %land.lhs.true, label %lor.lhs.false6

land.lhs.true:                                    ; preds = %lor.lhs.false3
  %4 = load i32, ptr %w.addr, align 4, !tbaa !12
  %cmp5 = icmp eq i32 %4, 2
  br i1 %cmp5, label %land.rhs, label %lor.lhs.false6

lor.lhs.false6:                                   ; preds = %land.lhs.true, %lor.lhs.false3
  %5 = load i32, ptr %d.addr, align 4, !tbaa !14
  %cmp7 = icmp eq i32 %5, 10
  br i1 %cmp7, label %land.lhs.true8, label %land.end

land.lhs.true8:                                   ; preds = %lor.lhs.false6
  %6 = load i32, ptr %w.addr, align 4, !tbaa !12
  %cmp9 = icmp eq i32 %6, 6
  br i1 %cmp9, label %land.rhs, label %land.end

land.rhs:                                         ; preds = %land.lhs.true8, %land.lhs.true, %if.then
  %7 = load i32, ptr %m.addr, align 4, !tbaa !16
  %cmp10 = icmp eq i32 %7, 11
  br label %land.end

land.end:                                         ; preds = %land.rhs, %land.lhs.true8, %lor.lhs.false6
  %8 = phi i1 [ false, %land.lhs.true8 ], [ false, %lor.lhs.false6 ], [ %cmp10, %land.rhs ]
  store i1 %8, ptr %retval, align 1
  br label %return

if.else:                                          ; preds = %lor.lhs.false
  %9 = load i32, ptr %d.addr, align 4, !tbaa !14
  %cmp11 = icmp sge i32 %9, 22
  br i1 %cmp11, label %land.lhs.true12, label %land.end18

land.lhs.true12:                                  ; preds = %if.else
  %10 = load i32, ptr %d.addr, align 4, !tbaa !14
  %cmp13 = icmp sle i32 %10, 28
  br i1 %cmp13, label %land.lhs.true14, label %land.end18

land.lhs.true14:                                  ; preds = %land.lhs.true12
  %11 = load i32, ptr %w.addr, align 4, !tbaa !12
  %cmp15 = icmp eq i32 %11, 2
  br i1 %cmp15, label %land.rhs16, label %land.end18

land.rhs16:                                       ; preds = %land.lhs.true14
  %12 = load i32, ptr %m.addr, align 4, !tbaa !16
  %cmp17 = icmp eq i32 %12, 10
  br label %land.end18

land.end18:                                       ; preds = %land.rhs16, %land.lhs.true14, %land.lhs.true12, %if.else
  %13 = phi i1 [ false, %land.lhs.true14 ], [ false, %land.lhs.true12 ], [ false, %if.else ], [ %cmp17, %land.rhs16 ]
  store i1 %13, ptr %retval, align 1
  br label %return

return:                                           ; preds = %land.end18, %land.end
  %14 = load i1, ptr %retval, align 1
  ret i1 %14
}