; Function Attrs: mustprogress nofree norecurse nosync nounwind willreturn memory(none) uwtable
define internal fastcc noundef zeroext i1 @_ZN8QuantLib12_GLOBAL__N_113isVeteransDayEiNS_5MonthEiNS_7WeekdayE(i32 noundef %d, i32 noundef %m, i32 noundef %y, i32 noundef %w) unnamed_addr #7 {
entry:
  %0 = add i32 %y, -1978
  %or.cond = icmp ult i32 %0, -7
  br i1 %or.cond, label %if.then, label %if.else

if.then:                                          ; preds = %entry
  %cmp2 = icmp eq i32 %d, 11
  br i1 %cmp2, label %land.rhs, label %lor.lhs.false3

lor.lhs.false3:                                   ; preds = %if.then
  %cmp4 = icmp eq i32 %d, 12
  %cmp5 = icmp eq i32 %w, 2
  %or.cond1 = and i1 %cmp4, %cmp5
  br i1 %or.cond1, label %land.rhs, label %lor.lhs.false6

lor.lhs.false6:                                   ; preds = %lor.lhs.false3
  %cmp7 = icmp eq i32 %d, 10
  %cmp9 = icmp eq i32 %w, 6
  %or.cond2 = and i1 %cmp7, %cmp9
  br i1 %or.cond2, label %land.rhs, label %return

land.rhs:                                         ; preds = %lor.lhs.false6, %lor.lhs.false3, %if.then
  %cmp10 = icmp eq i32 %m, 11
  br label %return

if.else:                                          ; preds = %entry
  %1 = add i32 %d, -22
  %or.cond3 = icmp ult i32 %1, 7
  %cmp15 = icmp eq i32 %w, 2
  %or.cond4 = and i1 %or.cond3, %cmp15
  %cmp17 = icmp eq i32 %m, 10
  %spec.select = and i1 %cmp17, %or.cond4
  br label %return

return:                                           ; preds = %lor.lhs.false6, %land.rhs, %if.else
  %retval.0 = phi i1 [ %spec.select, %if.else ], [ false, %lor.lhs.false6 ], [ %cmp10, %land.rhs ]
  ret i1 %retval.0
}